; ModuleID = '58/261.c'
source_filename = "58/261.c"
target datalayout = "e-m:e-p270:32:32-p271:32:32-p272:64:64-i64:64-f80:128-n8:16:32:64-S128"
target triple = "x86_64-pc-linux-gnu"

@.str = private unnamed_addr constant [3 x i8] c"%d\00", align 1
@.str.1 = private unnamed_addr constant [4 x i8] c"%d\0A\00", align 1

; Function Attrs: noinline nounwind uwtable
define dso_local i32 @main() #0 {
  %1 = alloca i32, align 4
  %2 = alloca i32, align 4
  %3 = alloca i32, align 4
  %4 = alloca i32, align 4
  %5 = alloca i32, align 4
  %6 = alloca i32, align 4
  %7 = alloca [85 x i8], align 16
  store i32 0, i32* %1, align 4
  %8 = call i32 (i8*, ...) @__isoc99_scanf(i8* getelementptr inbounds ([3 x i8], [3 x i8]* @.str, i64 0, i64 0), i32* %2)
  %9 = call i32 @getchar()
  store i32 0, i32* %3, align 4
  br label %10

10:                                               ; preds = %192, %0
  %11 = load i32, i32* %3, align 4
  %12 = load i32, i32* %2, align 4
  %13 = icmp slt i32 %11, %12
  br i1 %13, label %14, label %195

14:                                               ; preds = %10
  %15 = getelementptr inbounds [85 x i8], [85 x i8]* %7, i64 0, i64 0
  %16 = call i32 (i8*, ...) bitcast (i32 (...)* @gets to i32 (i8*, ...)*)(i8* %15)
  store i32 1, i32* %6, align 4
  %17 = getelementptr inbounds [85 x i8], [85 x i8]* %7, i64 0, i64 0
  %18 = load i8, i8* %17, align 16
  %19 = sext i8 %18 to i32
  %20 = icmp eq i32 %19, 95
  br i1 %20, label %21, label %104

21:                                               ; preds = %14
  store i32 1, i32* %4, align 4
  br label %22

22:                                               ; preds = %37, %21
  %23 = load i32, i32* %4, align 4
  %24 = sext i32 %23 to i64
  %25 = getelementptr inbounds [85 x i8], [85 x i8]* %7, i64 0, i64 0
  %26 = call i64 @strlen(i8* %25) #3
  %27 = icmp ult i64 %24, %26
  br i1 %27, label %28, label %40

28:                                               ; preds = %22
  %29 = load i32, i32* %4, align 4
  %30 = sext i32 %29 to i64
  %31 = getelementptr inbounds [85 x i8], [85 x i8]* %7, i64 0, i64 %30
  %32 = load i8, i8* %31, align 1
  %33 = sext i8 %32 to i32
  %34 = icmp ne i32 %33, 45
  br i1 %34, label %35, label %36

35:                                               ; preds = %28
  br label %40

36:                                               ; preds = %28
  br label %37

37:                                               ; preds = %36
  %38 = load i32, i32* %4, align 4
  %39 = add nsw i32 %38, 1
  store i32 %39, i32* %4, align 4
  br label %22

40:                                               ; preds = %35, %22
  %41 = load i32, i32* %4, align 4
  store i32 %41, i32* %5, align 4
  br label %42

42:                                               ; preds = %100, %40
  %43 = load i32, i32* %5, align 4
  %44 = sext i32 %43 to i64
  %45 = getelementptr inbounds [85 x i8], [85 x i8]* %7, i64 0, i64 0
  %46 = call i64 @strlen(i8* %45) #3
  %47 = icmp ult i64 %44, %46
  br i1 %47, label %48, label %103

48:                                               ; preds = %42
  %49 = load i32, i32* %5, align 4
  %50 = sext i32 %49 to i64
  %51 = getelementptr inbounds [85 x i8], [85 x i8]* %7, i64 0, i64 %50
  %52 = load i8, i8* %51, align 1
  %53 = sext i8 %52 to i32
  %54 = icmp sge i32 %53, 97
  br i1 %54, label %55, label %62

55:                                               ; preds = %48
  %56 = load i32, i32* %5, align 4
  %57 = sext i32 %56 to i64
  %58 = getelementptr inbounds [85 x i8], [85 x i8]* %7, i64 0, i64 %57
  %59 = load i8, i8* %58, align 1
  %60 = sext i8 %59 to i32
  %61 = icmp sle i32 %60, 122
  br i1 %61, label %97, label %62

62:                                               ; preds = %55, %48
  %63 = load i32, i32* %5, align 4
  %64 = sext i32 %63 to i64
  %65 = getelementptr inbounds [85 x i8], [85 x i8]* %7, i64 0, i64 %64
  %66 = load i8, i8* %65, align 1
  %67 = sext i8 %66 to i32
  %68 = icmp sge i32 %67, 65
  br i1 %68, label %69, label %76

69:                                               ; preds = %62
  %70 = load i32, i32* %5, align 4
  %71 = sext i32 %70 to i64
  %72 = getelementptr inbounds [85 x i8], [85 x i8]* %7, i64 0, i64 %71
  %73 = load i8, i8* %72, align 1
  %74 = sext i8 %73 to i32
  %75 = icmp sle i32 %74, 90
  br i1 %75, label %97, label %76

76:                                               ; preds = %69, %62
  %77 = load i32, i32* %5, align 4
  %78 = sext i32 %77 to i64
  %79 = getelementptr inbounds [85 x i8], [85 x i8]* %7, i64 0, i64 %78
  %80 = load i8, i8* %79, align 1
  %81 = sext i8 %80 to i32
  %82 = icmp eq i32 %81, 95
  br i1 %82, label %97, label %83

83:                                               ; preds = %76
  %84 = load i32, i32* %5, align 4
  %85 = sext i32 %84 to i64
  %86 = getelementptr inbounds [85 x i8], [85 x i8]* %7, i64 0, i64 %85
  %87 = load i8, i8* %86, align 1
  %88 = sext i8 %87 to i32
  %89 = icmp sge i32 %88, 48
  br i1 %89, label %90, label %98

90:                                               ; preds = %83
  %91 = load i32, i32* %5, align 4
  %92 = sext i32 %91 to i64
  %93 = getelementptr inbounds [85 x i8], [85 x i8]* %7, i64 0, i64 %92
  %94 = load i8, i8* %93, align 1
  %95 = sext i8 %94 to i32
  %96 = icmp sle i32 %95, 57
  br i1 %96, label %97, label %98

97:                                               ; preds = %90, %76, %69, %55
  store i32 1, i32* %6, align 4
  br label %99

98:                                               ; preds = %90, %83
  store i32 0, i32* %6, align 4
  br label %103

99:                                               ; preds = %97
  br label %100

100:                                              ; preds = %99
  %101 = load i32, i32* %5, align 4
  %102 = add nsw i32 %101, 1
  store i32 %102, i32* %5, align 4
  br label %42

103:                                              ; preds = %98, %42
  br label %189

104:                                              ; preds = %14
  %105 = getelementptr inbounds [85 x i8], [85 x i8]* %7, i64 0, i64 0
  %106 = load i8, i8* %105, align 16
  %107 = sext i8 %106 to i32
  %108 = icmp sge i32 %107, 97
  br i1 %108, label %109, label %114

109:                                              ; preds = %104
  %110 = getelementptr inbounds [85 x i8], [85 x i8]* %7, i64 0, i64 0
  %111 = load i8, i8* %110, align 16
  %112 = sext i8 %111 to i32
  %113 = icmp sle i32 %112, 122
  br i1 %113, label %124, label %114

114:                                              ; preds = %109, %104
  %115 = getelementptr inbounds [85 x i8], [85 x i8]* %7, i64 0, i64 0
  %116 = load i8, i8* %115, align 16
  %117 = sext i8 %116 to i32
  %118 = icmp sge i32 %117, 65
  br i1 %118, label %119, label %187

119:                                              ; preds = %114
  %120 = getelementptr inbounds [85 x i8], [85 x i8]* %7, i64 0, i64 0
  %121 = load i8, i8* %120, align 16
  %122 = sext i8 %121 to i32
  %123 = icmp sle i32 %122, 90
  br i1 %123, label %124, label %187

124:                                              ; preds = %119, %109
  store i32 0, i32* %5, align 4
  br label %125

125:                                              ; preds = %183, %124
  %126 = load i32, i32* %5, align 4
  %127 = sext i32 %126 to i64
  %128 = getelementptr inbounds [85 x i8], [85 x i8]* %7, i64 0, i64 0
  %129 = call i64 @strlen(i8* %128) #3
  %130 = icmp ult i64 %127, %129
  br i1 %130, label %131, label %186

131:                                              ; preds = %125
  %132 = load i32, i32* %5, align 4
  %133 = sext i32 %132 to i64
  %134 = getelementptr inbounds [85 x i8], [85 x i8]* %7, i64 0, i64 %133
  %135 = load i8, i8* %134, align 1
  %136 = sext i8 %135 to i32
  %137 = icmp sge i32 %136, 97
  br i1 %137, label %138, label %145

138:                                              ; preds = %131
  %139 = load i32, i32* %5, align 4
  %140 = sext i32 %139 to i64
  %141 = getelementptr inbounds [85 x i8], [85 x i8]* %7, i64 0, i64 %140
  %142 = load i8, i8* %141, align 1
  %143 = sext i8 %142 to i32
  %144 = icmp sle i32 %143, 122
  br i1 %144, label %180, label %145

145:                                              ; preds = %138, %131
  %146 = load i32, i32* %5, align 4
  %147 = sext i32 %146 to i64
  %148 = getelementptr inbounds [85 x i8], [85 x i8]* %7, i64 0, i64 %147
  %149 = load i8, i8* %148, align 1
  %150 = sext i8 %149 to i32
  %151 = icmp sge i32 %150, 65
  br i1 %151, label %152, label %159

152:                                              ; preds = %145
  %153 = load i32, i32* %5, align 4
  %154 = sext i32 %153 to i64
  %155 = getelementptr inbounds [85 x i8], [85 x i8]* %7, i64 0, i64 %154
  %156 = load i8, i8* %155, align 1
  %157 = sext i8 %156 to i32
  %158 = icmp sle i32 %157, 90
  br i1 %158, label %180, label %159

159:                                              ; preds = %152, %145
  %160 = load i32, i32* %5, align 4
  %161 = sext i32 %160 to i64
  %162 = getelementptr inbounds [85 x i8], [85 x i8]* %7, i64 0, i64 %161
  %163 = load i8, i8* %162, align 1
  %164 = sext i8 %163 to i32
  %165 = icmp eq i32 %164, 95
  br i1 %165, label %180, label %166

166:                                              ; preds = %159
  %167 = load i32, i32* %5, align 4
  %168 = sext i32 %167 to i64
  %169 = getelementptr inbounds [85 x i8], [85 x i8]* %7, i64 0, i64 %168
  %170 = load i8, i8* %169, align 1
  %171 = sext i8 %170 to i32
  %172 = icmp sge i32 %171, 48
  br i1 %172, label %173, label %181

173:                                              ; preds = %166
  %174 = load i32, i32* %5, align 4
  %175 = sext i32 %174 to i64
  %176 = getelementptr inbounds [85 x i8], [85 x i8]* %7, i64 0, i64 %175
  %177 = load i8, i8* %176, align 1
  %178 = sext i8 %177 to i32
  %179 = icmp sle i32 %178, 57
  br i1 %179, label %180, label %181

180:                                              ; preds = %173, %159, %152, %138
  store i32 1, i32* %6, align 4
  br label %182

181:                                              ; preds = %173, %166
  store i32 0, i32* %6, align 4
  br label %186

182:                                              ; preds = %180
  br label %183

183:                                              ; preds = %182
  %184 = load i32, i32* %5, align 4
  %185 = add nsw i32 %184, 1
  store i32 %185, i32* %5, align 4
  br label %125

186:                                              ; preds = %181, %125
  br label %188

187:                                              ; preds = %119, %114
  store i32 0, i32* %6, align 4
  br label %188

188:                                              ; preds = %187, %186
  br label %189

189:                                              ; preds = %188, %103
  %190 = load i32, i32* %6, align 4
  %191 = call i32 (i8*, ...) @printf(i8* getelementptr inbounds ([4 x i8], [4 x i8]* @.str.1, i64 0, i64 0), i32 %190)
  br label %192

192:                                              ; preds = %189
  %193 = load i32, i32* %3, align 4
  %194 = add nsw i32 %193, 1
  store i32 %194, i32* %3, align 4
  br label %10

195:                                              ; preds = %10
  %196 = load i32, i32* %1, align 4
  ret i32 %196
}

declare dso_local i32 @__isoc99_scanf(i8*, ...) #1

declare dso_local i32 @getchar() #1

declare dso_local i32 @gets(...) #1

; Function Attrs: nounwind readonly
declare dso_local i64 @strlen(i8*) #2

declare dso_local i32 @printf(i8*, ...) #1


!llvm.module.flags = !{!0}
!llvm.ident = !{!1}

!0 = !{i32 1, !"wchar_size", i32 4}
!1 = !{!"clang version 10.0.0-4ubuntu1 "}
